; Function Attrs: mustprogress nounwind uwtable
define void @_ZN3g2o18EstimatePropagator17AdjacencyMapEntryC2Ev(ptr noundef nonnull align 8 dereferenceable(88) initializes((16, 20), (24, 32)) %0) unnamed_addr #4 align 2 personality ptr @__gxx_personality_v0 {
  %2 = getelementptr inbounds nuw i8, ptr %0, i64 8
  %3 = getelementptr inbounds nuw i8, ptr %0, i64 16
  store i32 0, ptr %3, align 8, !tbaa !3
  %4 = getelementptr inbounds nuw i8, ptr %0, i64 24
  store ptr null, ptr %4, align 8, !tbaa !12
  %5 = getelementptr inbounds nuw i8, ptr %0, i64 32
  store ptr %3, ptr %5, align 8, !tbaa !13
  %6 = getelementptr inbounds nuw i8, ptr %0, i64 40
  store ptr %3, ptr %6, align 8, !tbaa !14
  %7 = getelementptr inbounds nuw i8, ptr %0, i64 48
  store i64 0, ptr %7, align 8, !tbaa !15
  %8 = getelementptr inbounds nuw i8, ptr %0, i64 80
  store ptr null, ptr %8, align 8, !tbaa !16
  store ptr null, ptr %0, align 8, !tbaa !18
  invoke void @_ZNSt8_Rb_treeIPN3g2o10HyperGraph6VertexES3_St9_IdentityIS3_ESt4lessIS3_ESaIS3_EE8_M_eraseEPSt13_Rb_tree_nodeIS3_E(ptr noundef nonnull align 8 dereferenceable(48) %2, ptr noundef null)
          to label %_ZN3g2o18EstimatePropagator17AdjacencyMapEntry5resetEv.exit unwind label %9

9:                                                ; preds = %1
  %10 = landingpad { ptr, i32 }
          catch ptr null
  %11 = extractvalue { ptr, i32 } %10, 0
  tail call void @__clang_call_terminate(ptr %11) #21
  unreachable

_ZN3g2o18EstimatePropagator17AdjacencyMapEntry5resetEv.exit: ; preds = %1
  store ptr null, ptr %4, align 8, !tbaa !12
  store ptr %3, ptr %5, align 8, !tbaa !13
  store ptr %3, ptr %6, align 8, !tbaa !14
  %12 = getelementptr inbounds nuw i8, ptr %0, i64 64
  tail call void @llvm.memset.p0.i64(ptr noundef nonnull align 8 dereferenceable(16) %7, i8 0, i64 16, i1 false)
  store double 0x7FEFFFFFFFFFFFFF, ptr %12, align 8, !tbaa !30
  %13 = getelementptr inbounds nuw i8, ptr %0, i64 72
  store i32 -1, ptr %13, align 8, !tbaa !31
  %14 = getelementptr inbounds nuw i8, ptr %0, i64 76
  store i8 0, ptr %14, align 4, !tbaa !32
  ret void
}